SF:/Users/adamchalmers/programming/html-parser/src/lib.rs
FN:80,_RNvNtCsiwsnmfKeSZU_11html_parser5testss_8test_val
FN:110,_RNvNtCsiwsnmfKeSZU_11html_parser5testss_8test_tag
FN:72,_RNvNtCsiwsnmfKeSZU_11html_parser5testss_8test_key
FN:98,_RNvNtCsiwsnmfKeSZU_11html_parser5testss_13test_link_tag
FN:88,_RNvNtCsiwsnmfKeSZU_11html_parser5testss_15test_attributes
FN:58,_RNCNvMs_CsiwsnmfKeSZU_11html_parserNtB6_3Tag5parse0B6_
FN:17,_RNCNvCsiwsnmfKeSZU_11html_parser9parse_val0B3_
FN:71,_RNCNvNtCsiwsnmfKeSZU_11html_parser5tests8test_key0B5_
FN:97,_RNCNvNtCsiwsnmfKeSZU_11html_parser5tests13test_link_tag0B5_
FN:79,_RNCNvNtCsiwsnmfKeSZU_11html_parser5tests8test_val0B5_
FN:87,_RNCNvNtCsiwsnmfKeSZU_11html_parser5tests15test_attributes0B5_
FN:109,_RNCNvNtCsiwsnmfKeSZU_11html_parser5tests8test_tag0B5_
FN:48,_RNvXs7_CsiwsnmfKeSZU_11html_parserNtB5_3TagNtNtCslrSlObKoGdR_4core3cmp9PartialEq2eqB5_
FN:25,_RNvCsiwsnmfKeSZU_11html_parser15parse_attribute
FN:41,_RNvMCsiwsnmfKeSZU_11html_parserNtB2_10Attributes5parse
FN:48,_RNvXs5_CsiwsnmfKeSZU_11html_parserNtB5_3TagNtNtCslrSlObKoGdR_4core3fmt5Debug3fmt
FN:16,_RNvCsiwsnmfKeSZU_11html_parser9parse_val
FN:56,_RNvMs_CsiwsnmfKeSZU_11html_parserNtB4_3Tag5parse
FN:11,_RNvCsiwsnmfKeSZU_11html_parser9parse_key
FN:35,_RNvXs0_CsiwsnmfKeSZU_11html_parserNtB5_10AttributesNtNtCslrSlObKoGdR_4core3fmt5Debug3fmt
FN:35,_RNvXs2_CsiwsnmfKeSZU_11html_parserNtB5_10AttributesNtNtCslrSlObKoGdR_4core3cmp9PartialEq2eqB5_
FNDA:1,_RNvNtCsiwsnmfKeSZU_11html_parser5testss_8test_val
FNDA:1,_RNvNtCsiwsnmfKeSZU_11html_parser5testss_8test_tag
FNDA:1,_RNvNtCsiwsnmfKeSZU_11html_parser5testss_8test_key
FNDA:1,_RNvNtCsiwsnmfKeSZU_11html_parser5testss_13test_link_tag
FNDA:1,_RNvNtCsiwsnmfKeSZU_11html_parser5testss_15test_attributes
FNDA:2,_RNCNvMs_CsiwsnmfKeSZU_11html_parserNtB6_3Tag5parse0B6_
FNDA:40,_RNCNvCsiwsnmfKeSZU_11html_parser9parse_val0B3_
FNDA:1,_RNCNvNtCsiwsnmfKeSZU_11html_parser5tests8test_key0B5_
FNDA:1,_RNCNvNtCsiwsnmfKeSZU_11html_parser5tests13test_link_tag0B5_
FNDA:1,_RNCNvNtCsiwsnmfKeSZU_11html_parser5tests8test_val0B5_
FNDA:1,_RNCNvNtCsiwsnmfKeSZU_11html_parser5tests15test_attributes0B5_
FNDA:1,_RNCNvNtCsiwsnmfKeSZU_11html_parser5tests8test_tag0B5_
FNDA:2,_RNvXs7_CsiwsnmfKeSZU_11html_parserNtB5_3TagNtNtCslrSlObKoGdR_4core3cmp9PartialEq2eqB5_
FNDA:5,_RNvCsiwsnmfKeSZU_11html_parser15parse_attribute
FNDA:3,_RNvMCsiwsnmfKeSZU_11html_parserNtB2_10Attributes5parse
FNDA:0,_RNvXs5_CsiwsnmfKeSZU_11html_parserNtB5_3TagNtNtCslrSlObKoGdR_4core3fmt5Debug3fmt
FNDA:6,_RNvCsiwsnmfKeSZU_11html_parser9parse_val
FNDA:2,_RNvMs_CsiwsnmfKeSZU_11html_parserNtB4_3Tag5parse
FNDA:6,_RNvCsiwsnmfKeSZU_11html_parser9parse_key
FNDA:0,_RNvXs0_CsiwsnmfKeSZU_11html_parserNtB5_10AttributesNtNtCslrSlObKoGdR_4core3fmt5Debug3fmt
FNDA:3,_RNvXs2_CsiwsnmfKeSZU_11html_parserNtB5_10AttributesNtNtCslrSlObKoGdR_4core3cmp9PartialEq2eqB5_
FNF:21
FNH:19
DA:11,6
DA:12,6
DA:13,6
DA:16,6
DA:17,40
DA:18,40
DA:19,40
DA:20,6
DA:21,6
DA:25,5
DA:26,5
DA:27,5
DA:28,5
DA:29,5
DA:30,5
DA:31,5
DA:32,5
DA:35,3
DA:41,3
DA:42,3
DA:43,3
DA:44,3
DA:48,2
DA:56,2
DA:57,2
DA:58,2
DA:59,2
DA:60,2
DA:61,2
DA:62,2
DA:63,2
DA:64,2
DA:71,1
DA:72,1
DA:73,1
DA:74,1
DA:75,1
DA:76,1
DA:77,1
DA:79,1
DA:80,1
DA:81,1
DA:82,1
DA:83,1
DA:84,1
DA:85,1
DA:87,1
DA:88,1
DA:89,1
DA:90,1
DA:91,1
DA:92,1
DA:93,1
DA:94,1
DA:95,1
DA:97,1
DA:98,1
DA:99,1
DA:100,1
DA:101,1
DA:102,1
DA:103,1
DA:104,1
DA:105,1
DA:106,1
DA:107,1
DA:108,1
DA:109,1
DA:110,1
DA:111,1
DA:112,1
DA:113,1
DA:114,1
DA:115,1
DA:116,1
DA:117,1
DA:118,1
DA:119,1
DA:120,1
BRF:0
BRH:0
LF:85
LH:83
end_of_record